target datalayout = "e-m:e-p270:32:32-p271:32:32-p272:64:64-i64:64-i128:128-f80:128-n8:16:32:64-S128"
target triple = "x86_64-pc-linux-gnu"

%struct.URLContext = type { ptr, ptr, ptr, ptr, i32, i32, i32, i32, %struct.AVIOInterruptCB, i64, ptr, ptr, i32 }
%struct.AVIOInterruptCB = type { ptr, ptr }
%struct.SCTPContext = type { ptr, i32, i32, i32, i32, i32, %struct.sockaddr_storage }
%struct.sockaddr_storage = type { i16, [118 x i8], i64 }
%struct.sctp_sndrcvinfo = type { i16, i16, i16, i32, i32, i32, i32, i32, i32 }
%struct.pollfd = type { i32, i16, i16 }
%struct.iovec = type { ptr, i64 }
%struct.msghdr = type { ptr, i32, ptr, i64, ptr, i64, i32 }
%struct.cmsghdr = type { i64, i32, i32, [0 x i8] }

; Function Attrs: inlinehint nounwind uwtable
define available_externally ptr @__cmsg_nxthdr(ptr noundef %0, ptr noundef %1) #8 {
  %3 = alloca ptr, align 8
  %4 = alloca ptr, align 8
  %5 = alloca ptr, align 8
  %6 = alloca ptr, align 8
  %7 = alloca ptr, align 8
  %8 = alloca i64, align 8
  %9 = alloca i32, align 4
  store ptr %0, ptr %4, align 8, !tbaa !76
  store ptr %1, ptr %5, align 8, !tbaa !59
  call void @llvm.lifetime.start.p0(i64 8, ptr %6) #10
  %10 = load ptr, ptr %4, align 8, !tbaa !76
  %11 = getelementptr inbounds nuw %struct.msghdr, ptr %10, i32 0, i32 4
  %12 = load ptr, ptr %11, align 8, !tbaa !70
  store ptr %12, ptr %6, align 8, !tbaa !9
  call void @llvm.lifetime.start.p0(i64 8, ptr %7) #10
  %13 = load ptr, ptr %5, align 8, !tbaa !59
  store ptr %13, ptr %7, align 8, !tbaa !9
  call void @llvm.lifetime.start.p0(i64 8, ptr %8) #10
  %14 = load ptr, ptr %5, align 8, !tbaa !59
  %15 = getelementptr inbounds nuw %struct.cmsghdr, ptr %14, i32 0, i32 0
  %16 = load i64, ptr %15, align 8, !tbaa !53
  %17 = and i64 %16, 7
  %18 = sub i64 8, %17
  %19 = and i64 %18, 7
  %20 = add i64 16, %19
  store i64 %20, ptr %8, align 8, !tbaa !53
  %21 = load ptr, ptr %5, align 8, !tbaa !59
  %22 = getelementptr inbounds nuw %struct.cmsghdr, ptr %21, i32 0, i32 0
  %23 = load i64, ptr %22, align 8, !tbaa !53
  %24 = icmp ult i64 %23, 16
  br i1 %24, label %25, label %26

25:                                               ; preds = %2
  store ptr null, ptr %3, align 8
  store i32 1, ptr %9, align 4
  br label %65

26:                                               ; preds = %2
  %27 = load ptr, ptr %6, align 8, !tbaa !9
  %28 = load ptr, ptr %4, align 8, !tbaa !76
  %29 = getelementptr inbounds nuw %struct.msghdr, ptr %28, i32 0, i32 5
  %30 = load i64, ptr %29, align 8, !tbaa !71
  %31 = getelementptr inbounds nuw i8, ptr %27, i64 %30
  %32 = load ptr, ptr %7, align 8, !tbaa !9
  %33 = ptrtoint ptr %31 to i64
  %34 = ptrtoint ptr %32 to i64
  %35 = sub i64 %33, %34
  %36 = load i64, ptr %8, align 8, !tbaa !53
  %37 = icmp ult i64 %35, %36
  br i1 %37, label %54, label %38

38:                                               ; preds = %26
  %39 = load ptr, ptr %6, align 8, !tbaa !9
  %40 = load ptr, ptr %4, align 8, !tbaa !76
  %41 = getelementptr inbounds nuw %struct.msghdr, ptr %40, i32 0, i32 5
  %42 = load i64, ptr %41, align 8, !tbaa !71
  %43 = getelementptr inbounds nuw i8, ptr %39, i64 %42
  %44 = load ptr, ptr %7, align 8, !tbaa !9
  %45 = ptrtoint ptr %43 to i64
  %46 = ptrtoint ptr %44 to i64
  %47 = sub i64 %45, %46
  %48 = load i64, ptr %8, align 8, !tbaa !53
  %49 = sub i64 %47, %48
  %50 = load ptr, ptr %5, align 8, !tbaa !59
  %51 = getelementptr inbounds nuw %struct.cmsghdr, ptr %50, i32 0, i32 0
  %52 = load i64, ptr %51, align 8, !tbaa !53
  %53 = icmp ult i64 %49, %52
  br i1 %53, label %54, label %55

54:                                               ; preds = %38, %26
  store ptr null, ptr %3, align 8
  store i32 1, ptr %9, align 4
  br label %65

55:                                               ; preds = %38
  %56 = load ptr, ptr %5, align 8, !tbaa !59
  %57 = load ptr, ptr %5, align 8, !tbaa !59
  %58 = getelementptr inbounds nuw %struct.cmsghdr, ptr %57, i32 0, i32 0
  %59 = load i64, ptr %58, align 8, !tbaa !53
  %60 = add i64 %59, 8
  %61 = sub i64 %60, 1
  %62 = and i64 %61, -8
  %63 = getelementptr inbounds nuw i8, ptr %56, i64 %62
  store ptr %63, ptr %5, align 8, !tbaa !59
  %64 = load ptr, ptr %5, align 8, !tbaa !59
  store ptr %64, ptr %3, align 8
  store i32 1, ptr %9, align 4
  br label %65

65:                                               ; preds = %55, %54, %25
  call void @llvm.lifetime.end.p0(i64 8, ptr %8) #10
  call void @llvm.lifetime.end.p0(i64 8, ptr %7) #10
  call void @llvm.lifetime.end.p0(i64 8, ptr %6) #10
  %66 = load ptr, ptr %3, align 8
  ret ptr %66
}

; Function Attrs: alwaysinline nounwind willreturn memory(none) uwtable
define internal zeroext i16 @av_bswap16(i16 noundef zeroext %0) #7 {
  %2 = alloca i16, align 2
  store i16 %0, ptr %2, align 2, !tbaa !75
  %3 = load i16, ptr %2, align 2, !tbaa !75
  %4 = zext i16 %3 to i32
  %5 = ashr i32 %4, 8
  %6 = load i16, ptr %2, align 2, !tbaa !75
  %7 = zext i16 %6 to i32
  %8 = shl i32 %7, 8
  %9 = or i32 %5, %8
  %10 = trunc i32 %9 to i16
  store i16 %10, ptr %2, align 2, !tbaa !75
  %11 = load i16, ptr %2, align 2, !tbaa !75
  ret i16 %11
}

; Function Attrs: nounwind uwtable
define internal i32 @ff_sctp_recvmsg(i32 noundef %0, ptr noundef %1, i64 noundef %2, ptr noundef %3, ptr noundef %4, ptr noundef %5, ptr noundef %6) #0 {
  %8 = alloca i32, align 4
  %9 = alloca i32, align 4
  %10 = alloca ptr, align 8
  %11 = alloca i64, align 8
  %12 = alloca ptr, align 8
  %13 = alloca ptr, align 8
  %14 = alloca ptr, align 8
  %15 = alloca ptr, align 8
  %16 = alloca i32, align 4
  %17 = alloca %struct.iovec, align 8
  %18 = alloca [48 x i8], align 16
  %19 = alloca %struct.msghdr, align 8
  %20 = alloca ptr, align 8
  %21 = alloca i32, align 4
  store i32 %0, ptr %9, align 4, !tbaa !11
  store ptr %1, ptr %10, align 8, !tbaa !52
  store i64 %2, ptr %11, align 8, !tbaa !53
  store ptr %3, ptr %12, align 8, !tbaa !54
  store ptr %4, ptr %13, align 8, !tbaa !55
  store ptr %5, ptr %14, align 8, !tbaa !57
  store ptr %6, ptr %15, align 8, !tbaa !55
  call void @llvm.lifetime.start.p0(i64 4, ptr %16) #10
  call void @llvm.lifetime.start.p0(i64 16, ptr %17) #10
  call void @llvm.lifetime.start.p0(i64 48, ptr %18) #10
  call void @llvm.lifetime.start.p0(i64 56, ptr %19) #10
  call void @llvm.memset.p0.i64(ptr align 8 %19, i8 0, i64 56, i1 false)
  call void @llvm.lifetime.start.p0(i64 8, ptr %20) #10
  store ptr null, ptr %20, align 8, !tbaa !59
  %22 = load ptr, ptr %10, align 8, !tbaa !52
  %23 = getelementptr inbounds nuw %struct.iovec, ptr %17, i32 0, i32 0
  store ptr %22, ptr %23, align 8, !tbaa !61
  %24 = load i64, ptr %11, align 8, !tbaa !53
  %25 = getelementptr inbounds nuw %struct.iovec, ptr %17, i32 0, i32 1
  store i64 %24, ptr %25, align 8, !tbaa !63
  %26 = load ptr, ptr %12, align 8, !tbaa !54
  %27 = getelementptr inbounds nuw %struct.msghdr, ptr %19, i32 0, i32 0
  store ptr %26, ptr %27, align 8, !tbaa !64
  %28 = load ptr, ptr %13, align 8, !tbaa !55
  %29 = icmp ne ptr %28, null
  br i1 %29, label %30, label %33

30:                                               ; preds = %7
  %31 = load ptr, ptr %13, align 8, !tbaa !55
  %32 = load i32, ptr %31, align 4, !tbaa !11
  br label %34

33:                                               ; preds = %7
  br label %34

34:                                               ; preds = %33, %30
  %35 = phi i32 [ %32, %30 ], [ 0, %33 ]
  %36 = getelementptr inbounds nuw %struct.msghdr, ptr %19, i32 0, i32 1
  store i32 %35, ptr %36, align 8, !tbaa !67
  %37 = getelementptr inbounds nuw %struct.msghdr, ptr %19, i32 0, i32 2
  store ptr %17, ptr %37, align 8, !tbaa !68
  %38 = getelementptr inbounds nuw %struct.msghdr, ptr %19, i32 0, i32 3
  store i64 1, ptr %38, align 8, !tbaa !69
  %39 = getelementptr inbounds [48 x i8], ptr %18, i64 0, i64 0
  %40 = getelementptr inbounds nuw %struct.msghdr, ptr %19, i32 0, i32 4
  store ptr %39, ptr %40, align 8, !tbaa !70
  %41 = getelementptr inbounds nuw %struct.msghdr, ptr %19, i32 0, i32 5
  store i64 48, ptr %41, align 8, !tbaa !71
  %42 = load i32, ptr %9, align 4, !tbaa !11
  %43 = load ptr, ptr %15, align 8, !tbaa !55
  %44 = icmp ne ptr %43, null
  br i1 %44, label %45, label %48

45:                                               ; preds = %34
  %46 = load ptr, ptr %15, align 8, !tbaa !55
  %47 = load i32, ptr %46, align 4, !tbaa !11
  br label %49

48:                                               ; preds = %34
  br label %49

49:                                               ; preds = %48, %45
  %50 = phi i32 [ %47, %45 ], [ 0, %48 ]
  %51 = call i64 @recvmsg(i32 noundef %42, ptr noundef %19, i32 noundef %50)
  %52 = trunc i64 %51 to i32
  store i32 %52, ptr %16, align 4, !tbaa !11
  %53 = icmp slt i32 %52, 0
  br i1 %53, label %54, label %56

54:                                               ; preds = %49
  %55 = load i32, ptr %16, align 4, !tbaa !11
  store i32 %55, ptr %8, align 4
  store i32 1, ptr %21, align 4
  br label %108

56:                                               ; preds = %49
  %57 = load ptr, ptr %13, align 8, !tbaa !55
  %58 = icmp ne ptr %57, null
  br i1 %58, label %59, label %63

59:                                               ; preds = %56
  %60 = getelementptr inbounds nuw %struct.msghdr, ptr %19, i32 0, i32 1
  %61 = load i32, ptr %60, align 8, !tbaa !67
  %62 = load ptr, ptr %13, align 8, !tbaa !55
  store i32 %61, ptr %62, align 4, !tbaa !11
  br label %63

63:                                               ; preds = %59, %56
  %64 = load ptr, ptr %15, align 8, !tbaa !55
  %65 = icmp ne ptr %64, null
  br i1 %65, label %66, label %70

66:                                               ; preds = %63
  %67 = getelementptr inbounds nuw %struct.msghdr, ptr %19, i32 0, i32 6
  %68 = load i32, ptr %67, align 8, !tbaa !72
  %69 = load ptr, ptr %15, align 8, !tbaa !55
  store i32 %68, ptr %69, align 4, !tbaa !11
  br label %70

70:                                               ; preds = %66, %63
  %71 = getelementptr inbounds nuw %struct.msghdr, ptr %19, i32 0, i32 5
  %72 = load i64, ptr %71, align 8, !tbaa !71
  %73 = icmp uge i64 %72, 16
  br i1 %73, label %74, label %77

74:                                               ; preds = %70
  %75 = getelementptr inbounds nuw %struct.msghdr, ptr %19, i32 0, i32 4
  %76 = load ptr, ptr %75, align 8, !tbaa !70
  br label %78

77:                                               ; preds = %70
  br label %78

78:                                               ; preds = %77, %74
  %79 = phi ptr [ %76, %74 ], [ null, %77 ]
  store ptr %79, ptr %20, align 8, !tbaa !59
  br label %80

80:                                               ; preds = %95, %78
  %81 = load ptr, ptr %20, align 8, !tbaa !59
  %82 = icmp ne ptr %81, null
  br i1 %82, label %83, label %98

83:                                               ; preds = %80
  %84 = load ptr, ptr %20, align 8, !tbaa !59
  %85 = getelementptr inbounds nuw %struct.cmsghdr, ptr %84, i32 0, i32 1
  %86 = load i32, ptr %85, align 8, !tbaa !11
  %87 = icmp eq i32 132, %86
  br i1 %87, label %88, label %94

88:                                               ; preds = %83
  %89 = load ptr, ptr %20, align 8, !tbaa !59
  %90 = getelementptr inbounds nuw %struct.cmsghdr, ptr %89, i32 0, i32 2
  %91 = load i32, ptr %90, align 4, !tbaa !11
  %92 = icmp eq i32 1, %91
  br i1 %92, label %93, label %94

93:                                               ; preds = %88
  br label %98

94:                                               ; preds = %88, %83
  br label %95

95:                                               ; preds = %94
  %96 = load ptr, ptr %20, align 8, !tbaa !59
  %97 = call ptr @__cmsg_nxthdr(ptr noundef %19, ptr noundef %96) #10
  store ptr %97, ptr %20, align 8, !tbaa !59
  br label %80, !llvm.loop !73

98:                                               ; preds = %93, %80
  %99 = load ptr, ptr %20, align 8, !tbaa !59
  %100 = icmp ne ptr %99, null
  br i1 %100, label %101, label %106

101:                                              ; preds = %98
  %102 = load ptr, ptr %14, align 8, !tbaa !57
  %103 = load ptr, ptr %20, align 8, !tbaa !59
  %104 = getelementptr inbounds nuw %struct.cmsghdr, ptr %103, i32 0, i32 3
  %105 = getelementptr inbounds [0 x i8], ptr %104, i64 0, i64 0
  call void @llvm.memcpy.p0.p0.i64(ptr align 4 %102, ptr align 8 %105, i64 32, i1 false)
  br label %106

106:                                              ; preds = %101, %98
  %107 = load i32, ptr %16, align 4, !tbaa !11
  store i32 %107, ptr %8, align 4
  store i32 1, ptr %21, align 4
  br label %108

108:                                              ; preds = %106, %54
  call void @llvm.lifetime.end.p0(i64 8, ptr %20) #10
  call void @llvm.lifetime.end.p0(i64 56, ptr %19) #10
  call void @llvm.lifetime.end.p0(i64 48, ptr %18) #10
  call void @llvm.lifetime.end.p0(i64 16, ptr %17) #10
  call void @llvm.lifetime.end.p0(i64 4, ptr %16) #10
  %109 = load i32, ptr %8, align 4
  ret i32 %109
}

; Function Attrs: nounwind uwtable
define internal i32 @sctp_wait_fd(i32 noundef %0, i32 noundef %1) #0 {
  %3 = alloca i32, align 4
  %4 = alloca i32, align 4
  %5 = alloca i32, align 4
  %6 = alloca %struct.pollfd, align 4
  %7 = alloca i32, align 4
  store i32 %0, ptr %3, align 4, !tbaa !11
  store i32 %1, ptr %4, align 4, !tbaa !11
  call void @llvm.lifetime.start.p0(i64 4, ptr %5) #10
  %8 = load i32, ptr %4, align 4, !tbaa !11
  %9 = icmp ne i32 %8, 0
  %10 = select i1 %9, i32 4, i32 1
  store i32 %10, ptr %5, align 4, !tbaa !11
  call void @llvm.lifetime.start.p0(i64 8, ptr %6) #10
  %11 = getelementptr inbounds nuw %struct.pollfd, ptr %6, i32 0, i32 0
  %12 = load i32, ptr %3, align 4, !tbaa !11
  store i32 %12, ptr %11, align 4, !tbaa !48
  %13 = getelementptr inbounds nuw %struct.pollfd, ptr %6, i32 0, i32 1
  %14 = load i32, ptr %5, align 4, !tbaa !11
  %15 = trunc i32 %14 to i16
  store i16 %15, ptr %13, align 4, !tbaa !50
  %16 = getelementptr inbounds nuw %struct.pollfd, ptr %6, i32 0, i32 2
  store i16 0, ptr %16, align 2, !tbaa !51
  call void @llvm.lifetime.start.p0(i64 4, ptr %7) #10
  %17 = call i32 @poll(ptr noundef %6, i64 noundef 1, i32 noundef 100)
  store i32 %17, ptr %7, align 4, !tbaa !11
  %18 = load i32, ptr %7, align 4, !tbaa !11
  %19 = icmp slt i32 %18, 0
  br i1 %19, label %20, label %24

20:                                               ; preds = %2
  %21 = call ptr @__errno_location() #12
  %22 = load i32, ptr %21, align 4, !tbaa !11
  %23 = sub nsw i32 0, %22
  br label %32

24:                                               ; preds = %2
  %25 = getelementptr inbounds nuw %struct.pollfd, ptr %6, i32 0, i32 2
  %26 = load i16, ptr %25, align 2, !tbaa !51
  %27 = sext i16 %26 to i32
  %28 = load i32, ptr %5, align 4, !tbaa !11
  %29 = and i32 %27, %28
  %30 = icmp ne i32 %29, 0
  %31 = select i1 %30, i32 0, i32 -11
  br label %32

32:                                               ; preds = %24, %20
  %33 = phi i32 [ %23, %20 ], [ %31, %24 ]
  call void @llvm.lifetime.end.p0(i64 4, ptr %7) #10
  call void @llvm.lifetime.end.p0(i64 8, ptr %6) #10
  call void @llvm.lifetime.end.p0(i64 4, ptr %5) #10
  ret i32 %33
}

; Function Attrs: nounwind uwtable
define internal i32 @sctp_read(ptr noundef %0, ptr noundef %1, i32 noundef %2) #0 {
  %4 = alloca i32, align 4
  %5 = alloca ptr, align 8
  %6 = alloca ptr, align 8
  %7 = alloca i32, align 4
  %8 = alloca ptr, align 8
  %9 = alloca i32, align 4
  %10 = alloca i32, align 4
  %11 = alloca %struct.sctp_sndrcvinfo, align 4
  store ptr %0, ptr %5, align 8, !tbaa !4
  store ptr %1, ptr %6, align 8, !tbaa !9
  store i32 %2, ptr %7, align 4, !tbaa !11
  call void @llvm.lifetime.start.p0(i64 8, ptr %8) #10
  %12 = load ptr, ptr %5, align 8, !tbaa !4
  %13 = getelementptr inbounds nuw %struct.URLContext, ptr %12, i32 0, i32 2
  %14 = load ptr, ptr %13, align 8, !tbaa !13
  store ptr %14, ptr %8, align 8, !tbaa !19
  call void @llvm.lifetime.start.p0(i64 4, ptr %9) #10
  %15 = load ptr, ptr %5, align 8, !tbaa !4
  %16 = getelementptr inbounds nuw %struct.URLContext, ptr %15, i32 0, i32 4
  %17 = load i32, ptr %16, align 8, !tbaa !44
  %18 = and i32 %17, 8
  %19 = icmp ne i32 %18, 0
  br i1 %19, label %30, label %20

20:                                               ; preds = %3
  %21 = load ptr, ptr %8, align 8, !tbaa !19
  %22 = getelementptr inbounds nuw %struct.SCTPContext, ptr %21, i32 0, i32 1
  %23 = load i32, ptr %22, align 8, !tbaa !43
  %24 = call i32 @sctp_wait_fd(i32 noundef %23, i32 noundef 0)
  store i32 %24, ptr %9, align 4, !tbaa !11
  %25 = load i32, ptr %9, align 4, !tbaa !11
  %26 = icmp slt i32 %25, 0
  br i1 %26, label %27, label %29

27:                                               ; preds = %20
  %28 = load i32, ptr %9, align 4, !tbaa !11
  store i32 %28, ptr %4, align 4
  store i32 1, ptr %10, align 4
  br label %78

29:                                               ; preds = %20
  br label %30

30:                                               ; preds = %29, %3
  %31 = load ptr, ptr %8, align 8, !tbaa !19
  %32 = getelementptr inbounds nuw %struct.SCTPContext, ptr %31, i32 0, i32 5
  %33 = load i32, ptr %32, align 8, !tbaa !25
  %34 = icmp ne i32 %33, 0
  br i1 %34, label %35, label %58

35:                                               ; preds = %30
  call void @llvm.lifetime.start.p0(i64 32, ptr %11) #10
  call void @llvm.memset.p0.i64(ptr align 4 %11, i8 0, i64 32, i1 false)
  %36 = load ptr, ptr %8, align 8, !tbaa !19
  %37 = getelementptr inbounds nuw %struct.SCTPContext, ptr %36, i32 0, i32 1
  %38 = load i32, ptr %37, align 8, !tbaa !43
  %39 = load ptr, ptr %6, align 8, !tbaa !9
  %40 = getelementptr inbounds i8, ptr %39, i64 2
  %41 = load i32, ptr %7, align 4, !tbaa !11
  %42 = sub nsw i32 %41, 2
  %43 = sext i32 %42 to i64
  %44 = call i32 @ff_sctp_recvmsg(i32 noundef %38, ptr noundef %40, i64 noundef %43, ptr noundef null, ptr noundef null, ptr noundef %11, ptr noundef null)
  store i32 %44, ptr %9, align 4, !tbaa !11
  %45 = getelementptr inbounds nuw %struct.sctp_sndrcvinfo, ptr %11, i32 0, i32 0
  %46 = load i16, ptr %45, align 4, !tbaa !45
  %47 = call zeroext i16 @av_bswap16(i16 noundef zeroext %46) #12
  %48 = load ptr, ptr %6, align 8, !tbaa !9
  store i16 %47, ptr %48, align 1, !tbaa !47
  %49 = load i32, ptr %9, align 4, !tbaa !11
  %50 = icmp slt i32 %49, 0
  br i1 %50, label %51, label %53

51:                                               ; preds = %35
  %52 = load i32, ptr %9, align 4, !tbaa !11
  br label %56

53:                                               ; preds = %35
  %54 = load i32, ptr %9, align 4, !tbaa !11
  %55 = add nsw i32 %54, 2
  br label %56

56:                                               ; preds = %53, %51
  %57 = phi i32 [ %52, %51 ], [ %55, %53 ]
  store i32 %57, ptr %9, align 4, !tbaa !11
  call void @llvm.lifetime.end.p0(i64 32, ptr %11) #10
  br label %67

58:                                               ; preds = %30
  %59 = load ptr, ptr %8, align 8, !tbaa !19
  %60 = getelementptr inbounds nuw %struct.SCTPContext, ptr %59, i32 0, i32 1
  %61 = load i32, ptr %60, align 8, !tbaa !43
  %62 = load ptr, ptr %6, align 8, !tbaa !9
  %63 = load i32, ptr %7, align 4, !tbaa !11
  %64 = sext i32 %63 to i64
  %65 = call i64 @recv(i32 noundef %61, ptr noundef %62, i64 noundef %64, i32 noundef 0)
  %66 = trunc i64 %65 to i32
  store i32 %66, ptr %9, align 4, !tbaa !11
  br label %67

67:                                               ; preds = %58, %56
  %68 = load i32, ptr %9, align 4, !tbaa !11
  %69 = icmp slt i32 %68, 0
  br i1 %69, label %70, label %74

70:                                               ; preds = %67
  %71 = call ptr @__errno_location() #12
  %72 = load i32, ptr %71, align 4, !tbaa !11
  %73 = sub nsw i32 0, %72
  br label %76

74:                                               ; preds = %67
  %75 = load i32, ptr %9, align 4, !tbaa !11
  br label %76

76:                                               ; preds = %74, %70
  %77 = phi i32 [ %73, %70 ], [ %75, %74 ]
  store i32 %77, ptr %4, align 4
  store i32 1, ptr %10, align 4
  br label %78

78:                                               ; preds = %76, %27
  call void @llvm.lifetime.end.p0(i64 4, ptr %9) #10
  call void @llvm.lifetime.end.p0(i64 8, ptr %8) #10
  %79 = load i32, ptr %4, align 4
  ret i32 %79
}