; Function Attrs: nounwind uwtable
define internal range(i32 -2147483647, -2147483648) i32 @sctp_read(ptr noundef readonly captures(none) %0, ptr noundef %1, i32 noundef %2) #0 {
  %4 = alloca %struct.iovec, align 8
  %5 = alloca [48 x i8], align 16
  %6 = alloca %struct.msghdr, align 8
  %7 = alloca %struct.pollfd, align 4
  %8 = getelementptr inbounds nuw i8, ptr %0, i64 16
  %9 = load ptr, ptr %8, align 8, !tbaa !4
  %10 = getelementptr inbounds nuw i8, ptr %0, i64 32
  %11 = load i32, ptr %10, align 8, !tbaa !39
  %12 = and i32 %11, 8
  %.not = icmp eq i32 %12, 0
  br i1 %.not, label %13, label %sctp_wait_fd.exit.thread21

13:                                               ; preds = %3
  %14 = getelementptr inbounds nuw i8, ptr %9, i64 8
  %15 = load i32, ptr %14, align 8, !tbaa !38
  call void @llvm.lifetime.start.p0(i64 8, ptr nonnull %7) #12
  store i32 %15, ptr %7, align 4, !tbaa !40
  %16 = getelementptr inbounds nuw i8, ptr %7, i64 4
  store i16 1, ptr %16, align 4, !tbaa !42
  %17 = getelementptr inbounds nuw i8, ptr %7, i64 6
  store i16 0, ptr %17, align 2, !tbaa !43
  %18 = call i32 @poll(ptr noundef nonnull %7, i64 noundef 1, i32 noundef 100) #12
  %19 = icmp slt i32 %18, 0
  br i1 %19, label %sctp_wait_fd.exit, label %20

20:                                               ; preds = %13
  %21 = load i16, ptr %17, align 2, !tbaa !43
  %22 = and i16 %21, 1
  %.not5.i = icmp eq i16 %22, 0
  call void @llvm.lifetime.end.p0(i64 8, ptr nonnull %7) #12
  br i1 %.not5.i, label %sctp_wait_fd.exit.thread, label %sctp_wait_fd.exit.thread21

sctp_wait_fd.exit:                                ; preds = %13
  %23 = tail call ptr @__errno_location() #14
  %24 = load i32, ptr %23, align 4, !tbaa !15
  %25 = sub nsw i32 0, %24
  call void @llvm.lifetime.end.p0(i64 8, ptr nonnull %7) #12
  %26 = icmp sgt i32 %24, 0
  br i1 %26, label %sctp_wait_fd.exit.thread, label %sctp_wait_fd.exit.thread21

sctp_wait_fd.exit.thread21:                       ; preds = %20, %sctp_wait_fd.exit, %3
  %27 = getelementptr inbounds nuw i8, ptr %9, i64 24
  %28 = load i32, ptr %27, align 8, !tbaa !20
  %.not20 = icmp eq i32 %28, 0
  %29 = getelementptr inbounds nuw i8, ptr %9, i64 8
  %30 = load i32, ptr %29, align 8, !tbaa !38
  br i1 %.not20, label %78, label %31

31:                                               ; preds = %sctp_wait_fd.exit.thread21
  %32 = getelementptr inbounds nuw i8, ptr %1, i64 2
  %33 = add nsw i32 %2, -2
  %34 = sext i32 %33 to i64
  call void @llvm.lifetime.start.p0(i64 16, ptr nonnull %4) #12
  call void @llvm.lifetime.start.p0(i64 48, ptr nonnull %5) #12
  call void @llvm.lifetime.start.p0(i64 56, ptr nonnull %6) #12
  %35 = getelementptr inbounds nuw i8, ptr %6, i64 8
  call void @llvm.memset.p0.i64(ptr noundef nonnull align 8 dereferenceable(48) %35, i8 0, i64 48, i1 false)
  store ptr %32, ptr %4, align 8, !tbaa !44
  %36 = getelementptr inbounds nuw i8, ptr %4, i64 8
  store i64 %34, ptr %36, align 8, !tbaa !46
  store ptr null, ptr %6, align 8, !tbaa !47
  %37 = getelementptr inbounds nuw i8, ptr %6, i64 16
  store ptr %4, ptr %37, align 8, !tbaa !50
  %38 = getelementptr inbounds nuw i8, ptr %6, i64 24
  store i64 1, ptr %38, align 8, !tbaa !51
  %39 = getelementptr inbounds nuw i8, ptr %6, i64 32
  store ptr %5, ptr %39, align 8, !tbaa !52
  %40 = getelementptr inbounds nuw i8, ptr %6, i64 40
  store i64 48, ptr %40, align 8, !tbaa !53
  %41 = call i64 @recvmsg(i32 noundef %30, ptr noundef nonnull %6, i32 noundef 0) #12
  %42 = trunc i64 %41 to i32
  %43 = icmp slt i32 %42, 0
  br i1 %43, label %ff_sctp_recvmsg.exit, label %44

44:                                               ; preds = %31
  %45 = load i64, ptr %40, align 8, !tbaa !53
  %46 = icmp ult i64 %45, 16
  %47 = load ptr, ptr %39, align 8
  %.not24.i = icmp eq ptr %47, null
  %.not2.i = select i1 %46, i1 true, i1 %.not24.i
  br i1 %.not2.i, label %ff_sctp_recvmsg.exit, label %.lr.ph.i

.lr.ph.i:                                         ; preds = %44
  %48 = getelementptr inbounds nuw i8, ptr %47, i64 %45
  %49 = ptrtoint ptr %48 to i64
  br label %50

50:                                               ; preds = %__cmsg_nxthdr.exit.i, %.lr.ph.i
  %.03.i = phi ptr [ %47, %.lr.ph.i ], [ %72, %__cmsg_nxthdr.exit.i ]
  %51 = getelementptr inbounds nuw i8, ptr %.03.i, i64 8
  %52 = load i32, ptr %51, align 8, !tbaa !15
  %53 = icmp eq i32 %52, 132
  br i1 %53, label %54, label %58

54:                                               ; preds = %50
  %55 = getelementptr inbounds nuw i8, ptr %.03.i, i64 12
  %56 = load i32, ptr %55, align 4, !tbaa !15
  %57 = icmp eq i32 %56, 1
  br i1 %57, label %73, label %58

58:                                               ; preds = %54, %50
  %59 = load i64, ptr %.03.i, align 8, !tbaa !54
  %60 = icmp ult i64 %59, 16
  br i1 %60, label %ff_sctp_recvmsg.exit, label %61

61:                                               ; preds = %58
  %62 = sub i64 0, %59
  %63 = and i64 %62, 7
  %64 = or disjoint i64 %63, 16
  %65 = ptrtoint ptr %.03.i to i64
  %66 = sub i64 %49, %65
  %67 = icmp ult i64 %66, %64
  %68 = sub nuw i64 %66, %64
  %69 = icmp ult i64 %68, %59
  %or.cond.i.i = select i1 %67, i1 true, i1 %69
  br i1 %or.cond.i.i, label %ff_sctp_recvmsg.exit, label %__cmsg_nxthdr.exit.i

__cmsg_nxthdr.exit.i:                             ; preds = %61
  %70 = add nuw i64 %59, 7
  %71 = and i64 %70, -8
  %72 = getelementptr inbounds nuw i8, ptr %.03.i, i64 %71
  br label %50

73:                                               ; preds = %54
  %74 = getelementptr inbounds nuw i8, ptr %.03.i, i64 16
  %.sroa.0.0.copyload = load i16, ptr %74, align 8
  br label %ff_sctp_recvmsg.exit

ff_sctp_recvmsg.exit:                             ; preds = %58, %61, %31, %44, %73
  %.sroa.0.0 = phi i16 [ 0, %31 ], [ 0, %44 ], [ %.sroa.0.0.copyload, %73 ], [ 0, %61 ], [ 0, %58 ]
  call void @llvm.lifetime.end.p0(i64 56, ptr nonnull %6) #12
  call void @llvm.lifetime.end.p0(i64 48, ptr nonnull %5) #12
  call void @llvm.lifetime.end.p0(i64 16, ptr nonnull %4) #12
  %75 = call i16 @llvm.bswap.i16(i16 %.sroa.0.0)
  store i16 %75, ptr %1, align 1, !tbaa !55
  %76 = add nuw nsw i32 %42, 2
  %77 = select i1 %43, i32 %42, i32 %76
  br label %82

78:                                               ; preds = %sctp_wait_fd.exit.thread21
  %79 = sext i32 %2 to i64
  %80 = call i64 @recv(i32 noundef %30, ptr noundef %1, i64 noundef %79, i32 noundef 0) #12
  %81 = trunc i64 %80 to i32
  br label %82

82:                                               ; preds = %78, %ff_sctp_recvmsg.exit
  %.0 = phi i32 [ %77, %ff_sctp_recvmsg.exit ], [ %81, %78 ]
  %83 = icmp slt i32 %.0, 0
  br i1 %83, label %84, label %sctp_wait_fd.exit.thread

84:                                               ; preds = %82
  %85 = tail call ptr @__errno_location() #14
  %86 = load i32, ptr %85, align 4, !tbaa !15
  %87 = sub nsw i32 0, %86
  br label %sctp_wait_fd.exit.thread

sctp_wait_fd.exit.thread:                         ; preds = %20, %84, %82, %sctp_wait_fd.exit
  %.018 = phi i32 [ %25, %sctp_wait_fd.exit ], [ %87, %84 ], [ %.0, %82 ], [ -11, %20 ]
  ret i32 %.018
}